target datalayout = "e-m:e-p270:32:32-p271:32:32-p272:64:64-i64:64-i128:128-f80:128-n8:16:32:64-S128"
target triple = "x86_64-pc-linux-gnu"

@gtk2_libhandle = internal global ptr null, align 8
@.str = private unnamed_addr constant [18 x i8] c"gtk_check_version\00", align 1
@fp_gtk_check_version = internal global ptr null, align 8

; Function Attrs: nounwind uwtable
define hidden i32 @gtk2_check(ptr noundef %0, i32 noundef %1) #0 {
  %3 = alloca i32, align 4
  %4 = alloca ptr, align 8
  %5 = alloca i32, align 4
  %6 = alloca ptr, align 8
  store ptr %0, ptr %4, align 8
  store i32 %1, ptr %5, align 4
  %7 = load ptr, ptr @gtk2_libhandle, align 8
  %8 = icmp ne ptr %7, null
  br i1 %8, label %9, label %10

9:                                                ; preds = %2
  store i32 1, ptr %3, align 4
  br label %36

10:                                               ; preds = %2
  store ptr null, ptr %6, align 8
  %11 = load ptr, ptr %4, align 8
  %12 = call ptr @dlopen(ptr noundef %11, i32 noundef 5) #7
  store ptr %12, ptr %6, align 8
  %13 = load i32, ptr %5, align 4
  %14 = icmp ne i32 %13, 0
  br i1 %14, label %15, label %18

15:                                               ; preds = %10
  %16 = load ptr, ptr %6, align 8
  %17 = icmp ne ptr %16, null
  br i1 %17, label %18, label %22

18:                                               ; preds = %15, %10
  %19 = load ptr, ptr %6, align 8
  %20 = icmp ne ptr %19, null
  %21 = zext i1 %20 to i32
  store i32 %21, ptr %3, align 4
  br label %36

22:                                               ; preds = %15
  %23 = load ptr, ptr %4, align 8
  %24 = call ptr @dlopen(ptr noundef %23, i32 noundef 1) #7
  store ptr %24, ptr %6, align 8
  %25 = load ptr, ptr %6, align 8
  %26 = icmp eq ptr %25, null
  br i1 %26, label %27, label %28

27:                                               ; preds = %22
  store i32 0, ptr %3, align 4
  br label %36

28:                                               ; preds = %22
  %29 = load ptr, ptr %6, align 8
  %30 = call ptr @dlsym(ptr noundef %29, ptr noundef @.str) #7
  store ptr %30, ptr @fp_gtk_check_version, align 8
  %31 = load ptr, ptr @fp_gtk_check_version, align 8
  %32 = call ptr %31(i32 noundef 2, i32 noundef 2, i32 noundef 0)
  %33 = icmp ne ptr %32, null
  br i1 %33, label %35, label %34

34:                                               ; preds = %28
  store i32 1, ptr %3, align 4
  br label %36

35:                                               ; preds = %28
  store i32 0, ptr %3, align 4
  br label %36

36:                                               ; preds = %35, %34, %27, %18, %9
  %37 = load i32, ptr %3, align 4
  ret i32 %37
}