; Function Attrs: nounwind uwtable
define hidden range(i32 0, 2) i32 @gtk2_check(ptr noundef %0, i32 noundef %1) local_unnamed_addr #0 {
  %3 = load ptr, ptr @gtk2_libhandle, align 8
  %.not = icmp eq ptr %3, null
  br i1 %.not, label %4, label %14

4:                                                ; preds = %2
  %5 = tail call ptr @dlopen(ptr noundef %0, i32 noundef 5) #18
  %6 = icmp eq i32 %1, 0
  %7 = icmp ne ptr %5, null
  %or.cond = select i1 %6, i1 true, i1 %7
  br i1 %or.cond, label %14, label %8

8:                                                ; preds = %4
  %9 = tail call ptr @dlopen(ptr noundef %0, i32 noundef 1) #18
  %10 = icmp eq ptr %9, null
  br i1 %10, label %14, label %11

11:                                               ; preds = %8
  %12 = tail call ptr @dlsym(ptr noundef nonnull %9, ptr noundef nonnull @.str) #18
  store ptr %12, ptr @fp_gtk_check_version, align 8
  %13 = tail call ptr %12(i32 noundef 2, i32 noundef 2, i32 noundef 0) #18
  %.not9 = icmp eq ptr %13, null
  br label %14

14:                                               ; preds = %4, %11, %8, %2
  %.0.shrunk = phi i1 [ true, %2 ], [ false, %8 ], [ %.not9, %11 ], [ %7, %4 ]
  %.0 = zext i1 %.0.shrunk to i32
  ret i32 %.0
}